; Function Attrs: mustprogress uwtable
define dso_local noundef zeroext i1 @_Z38Vmycpu_top___024root___eval_phase__icoP20Vmycpu_top___024root(ptr noundef %0) local_unnamed_addr #2 {
  tail call void @_Z41Vmycpu_top___024root___eval_triggers__icoP20Vmycpu_top___024root(ptr noundef %0)
  %2 = getelementptr inbounds i8, ptr %0, i64 19216
  br label %3

3:                                                ; preds = %5, %1
  %4 = phi i1 [ true, %1 ], [ false, %5 ]
  %.0.i = phi i64 [ 0, %1 ], [ 1, %5 ]
  br i1 %4, label %5, label %_ZNK12VlTriggerVecILm1EE3anyEv.exit

5:                                                ; preds = %3
  %6 = getelementptr inbounds [1 x i64], ptr %2, i64 0, i64 %.0.i
  %7 = load i64, ptr %6, align 8
  %.not.i = icmp eq i64 %7, 0
  br i1 %.not.i, label %3, label %8, !llvm.loop !5

8:                                                ; preds = %5
  %9 = load i64, ptr %2, align 8
  %10 = and i64 %9, 1
  %.not.i5 = icmp eq i64 %10, 0
  br i1 %.not.i5, label %_ZNK12VlTriggerVecILm1EE3anyEv.exit, label %11

11:                                               ; preds = %8
  tail call void @_Z42Vmycpu_top___024root___ico_sequent__TOP__0P20Vmycpu_top___024root(ptr noundef nonnull %0)
  br label %_ZNK12VlTriggerVecILm1EE3anyEv.exit

_ZNK12VlTriggerVecILm1EE3anyEv.exit:              ; preds = %3, %11, %8
  ret i1 %4
}